; Function Attrs: mustprogress nounwind uwtable
define noundef nonnull align 8 dereferenceable(8) ptr @_ZN3gmx22StatePropagatorDataGpuaSEOS0_(ptr noundef nonnull returned align 8 dereferenceable(8) %0, ptr nocapture noundef nonnull align 8 dereferenceable(8) %1) local_unnamed_addr #2 align 2 personality ptr @__gxx_personality_v0 {
  %3 = load ptr, ptr %1, align 8
  store ptr null, ptr %1, align 8
  %4 = load ptr, ptr %0, align 8
  store ptr %3, ptr %0, align 8
  %.not.i.i.i.i = icmp eq ptr %4, null
  br i1 %.not.i.i.i.i, label %_ZNSt10unique_ptrIN3gmx22StatePropagatorDataGpu4ImplESt14default_deleteIS2_EEaSEOS5_.exit, label %_ZNKSt14default_deleteIN3gmx22StatePropagatorDataGpu4ImplEEclEPS2_.exit.i.i.i.i

_ZNKSt14default_deleteIN3gmx22StatePropagatorDataGpu4ImplEEclEPS2_.exit.i.i.i.i: ; preds = %2
  tail call void @_ZdlPv(ptr noundef nonnull %4) #5
  br label %_ZNSt10unique_ptrIN3gmx22StatePropagatorDataGpu4ImplESt14default_deleteIS2_EEaSEOS5_.exit

_ZNSt10unique_ptrIN3gmx22StatePropagatorDataGpu4ImplESt14default_deleteIS2_EEaSEOS5_.exit: ; preds = %2, %_ZNKSt14default_deleteIN3gmx22StatePropagatorDataGpu4ImplEEclEPS2_.exit.i.i.i.i
  ret ptr %0
}